target datalayout = "e-m:e-p270:32:32-p271:32:32-p272:64:64-i64:64-i128:128-f80:128-n8:16:32:64-S128"
target triple = "x86_64-pc-linux-gnu"

%struct.RBasic = type { i64, i64 }

@rb_eArgError = external global i64, align 8
@.str.138 = private unnamed_addr constant [34 x i8] c"unexpected value for freeze: %li\0B\00", align 1
@.str.139 = private unnamed_addr constant [20 x i8] c"can't unfreeze %li\0B\00", align 1

; Function Attrs: inlinehint nounwind sspstrong willreturn memory(none) uwtable
define internal zeroext i1 @RB_IMMEDIATE_P(i64 noundef %0) #1 {
  %2 = alloca i64, align 8
  store i64 %0, ptr %2, align 8, !tbaa !11
  %3 = load i64, ptr %2, align 8, !tbaa !11
  %4 = and i64 %3, 7
  %5 = icmp ne i64 %4, 0
  ret i1 %5
}

; Function Attrs: inlinehint nounwind sspstrong willreturn memory(read) uwtable
define internal i32 @RB_BUILTIN_TYPE(i64 noundef %0) #7 {
  %2 = alloca i64, align 8
  %3 = alloca i64, align 8
  store i64 %0, ptr %2, align 8, !tbaa !11
  call void @llvm.lifetime.start.p0(i64 8, ptr %3) #28
  %4 = load i64, ptr %2, align 8, !tbaa !11
  %5 = inttoptr i64 %4 to ptr
  %6 = getelementptr inbounds nuw %struct.RBasic, ptr %5, i32 0, i32 0
  %7 = load i64, ptr %6, align 8, !tbaa !28
  %8 = and i64 %7, 31
  store i64 %8, ptr %3, align 8, !tbaa !11
  %9 = load i64, ptr %3, align 8, !tbaa !11
  %10 = trunc i64 %9 to i32
  call void @llvm.lifetime.end.p0(i64 8, ptr %3) #28
  ret i32 %10
}

; Function Attrs: inlinehint nounwind sspstrong willreturn memory(none) uwtable
define internal zeroext i1 @RB_SPECIAL_CONST_P(i64 noundef %0) #1 {
  %2 = alloca i64, align 8
  store i64 %0, ptr %2, align 8, !tbaa !11
  %3 = load i64, ptr %2, align 8, !tbaa !11
  %4 = icmp eq i64 %3, 0
  br i1 %4, label %8, label %5

5:                                                ; preds = %1
  %6 = load i64, ptr %2, align 8, !tbaa !11
  %7 = call zeroext i1 @RB_IMMEDIATE_P(i64 noundef %6) #27
  br label %8

8:                                                ; preds = %5, %1
  %9 = phi i1 [ true, %1 ], [ %7, %5 ]
  ret i1 %9
}

; Function Attrs: nounwind sspstrong uwtable
define internal i64 @immutable_obj_clone(i64 noundef %0, i64 noundef %1) #0 {
  %3 = alloca i64, align 8
  %4 = alloca i64, align 8
  store i64 %0, ptr %3, align 8, !tbaa !11
  store i64 %1, ptr %4, align 8, !tbaa !11
  %5 = load i64, ptr %4, align 8, !tbaa !11
  %6 = icmp eq i64 %5, 0
  br i1 %6, label %7, label %11

7:                                                ; preds = %2
  %8 = load i64, ptr @rb_eArgError, align 8, !tbaa !11
  %9 = load i64, ptr %3, align 8, !tbaa !11
  %10 = call i64 @rb_obj_class(i64 noundef %9)
  call void (i64, ptr, ...) @rb_raise(i64 noundef %8, ptr noundef @.str.139, i64 noundef %10) #31
  unreachable

11:                                               ; preds = %2
  %12 = load i64, ptr %3, align 8, !tbaa !11
  ret i64 %12
}

; Function Attrs: inlinehint nounwind sspstrong willreturn memory(read) uwtable
define internal i32 @special_object_p(i64 noundef %0) #7 {
  %2 = alloca i32, align 4
  %3 = alloca i64, align 8
  store i64 %0, ptr %3, align 8, !tbaa !11
  %4 = load i64, ptr %3, align 8, !tbaa !11
  %5 = call zeroext i1 @RB_SPECIAL_CONST_P(i64 noundef %4) #27
  br i1 %5, label %6, label %7

6:                                                ; preds = %1
  store i32 1, ptr %2, align 4
  br label %12

7:                                                ; preds = %1
  %8 = load i64, ptr %3, align 8, !tbaa !11
  %9 = call i32 @RB_BUILTIN_TYPE(i64 noundef %8) #29
  switch i32 %9, label %11 [
    i32 10, label %10
    i32 4, label %10
    i32 20, label %10
    i32 15, label %10
    i32 14, label %10
  ]

10:                                               ; preds = %7, %7, %7, %7, %7
  store i32 1, ptr %2, align 4
  br label %12

11:                                               ; preds = %7
  store i32 0, ptr %2, align 4
  br label %12

12:                                               ; preds = %11, %10, %6
  %13 = load i32, ptr %2, align 4
  ret i32 %13
}

; Function Attrs: nounwind sspstrong uwtable
define internal i64 @obj_freeze_opt(i64 noundef %0) #0 {
  %2 = alloca i64, align 8
  store i64 %0, ptr %2, align 8, !tbaa !11
  %3 = load i64, ptr %2, align 8, !tbaa !11
  switch i64 %3, label %5 [
    i64 0, label %4
    i64 20, label %4
    i64 4, label %4
  ]

4:                                                ; preds = %1, %1, %1
  br label %9

5:                                                ; preds = %1
  %6 = load i64, ptr @rb_eArgError, align 8, !tbaa !11
  %7 = load i64, ptr %2, align 8, !tbaa !11
  %8 = call i64 @rb_obj_class(i64 noundef %7)
  call void (i64, ptr, ...) @rb_raise(i64 noundef %6, ptr noundef @.str.138, i64 noundef %8) #31
  unreachable

9:                                                ; preds = %4
  %10 = load i64, ptr %2, align 8, !tbaa !11
  ret i64 %10
}

; Function Attrs: nounwind sspstrong uwtable
define internal i64 @rb_obj_clone2(ptr noundef %0, i64 noundef %1, i64 noundef %2) #0 {
  %4 = alloca i64, align 8
  %5 = alloca ptr, align 8
  %6 = alloca i64, align 8
  %7 = alloca i64, align 8
  %8 = alloca i64, align 8
  %9 = alloca i32, align 4
  store ptr %0, ptr %5, align 8, !tbaa !26
  store i64 %1, ptr %6, align 8, !tbaa !11
  store i64 %2, ptr %7, align 8, !tbaa !11
  call void @llvm.lifetime.start.p0(i64 8, ptr %8) #28
  %10 = load i64, ptr %7, align 8, !tbaa !11
  %11 = call i64 @obj_freeze_opt(i64 noundef %10)
  store i64 %11, ptr %8, align 8, !tbaa !11
  %12 = load i64, ptr %6, align 8, !tbaa !11
  %13 = call i32 @special_object_p(i64 noundef %12) #29
  %14 = icmp ne i32 %13, 0
  br i1 %14, label %19, label %15

15:                                               ; preds = %3
  %16 = load i64, ptr %6, align 8, !tbaa !11
  %17 = load i64, ptr %8, align 8, !tbaa !11
  %18 = call i64 @mutable_obj_clone(i64 noundef %16, i64 noundef %17)
  store i64 %18, ptr %4, align 8
  store i32 1, ptr %9, align 4
  br label %23

19:                                               ; preds = %3
  %20 = load i64, ptr %6, align 8, !tbaa !11
  %21 = load i64, ptr %8, align 8, !tbaa !11
  %22 = call i64 @immutable_obj_clone(i64 noundef %20, i64 noundef %21)
  store i64 %22, ptr %4, align 8
  store i32 1, ptr %9, align 4
  br label %23

23:                                               ; preds = %19, %15
  call void @llvm.lifetime.end.p0(i64 8, ptr %8) #28
  %24 = load i64, ptr %4, align 8
  ret i64 %24
}