; Function Attrs: nounwind sspstrong uwtable
define internal noundef i64 @rb_obj_clone2(ptr readnone captures(none) %0, i64 noundef %1, i64 noundef %2) #2 {
  switch i64 %2, label %4 [
    i64 0, label %obj_freeze_opt.exit
    i64 20, label %obj_freeze_opt.exit
    i64 4, label %obj_freeze_opt.exit
  ]

4:                                                ; preds = %3
  %5 = load i64, ptr @rb_eArgError, align 8, !tbaa !7
  %6 = tail call i64 @rb_obj_class(i64 noundef %2)
  tail call void (i64, ptr, ...) @rb_raise(i64 noundef %5, ptr noundef nonnull @.str.138, i64 noundef %6) #24
  unreachable

obj_freeze_opt.exit:                              ; preds = %3, %3, %3
  %7 = icmp eq i64 %1, 0
  %8 = and i64 %1, 7
  %9 = icmp ne i64 %8, 0
  %10 = or i1 %7, %9
  br i1 %10, label %17, label %11

11:                                               ; preds = %obj_freeze_opt.exit
  %12 = inttoptr i64 %1 to ptr
  %13 = load i64, ptr %12, align 8, !tbaa !24
  %14 = trunc i64 %13 to i32
  %15 = and i32 %14, 31
  switch i32 %15, label %special_object_p.exit [
    i32 10, label %17
    i32 4, label %17
    i32 20, label %17
    i32 15, label %17
    i32 14, label %17
  ]

special_object_p.exit:                            ; preds = %11
  %16 = tail call fastcc i64 @mutable_obj_clone(i64 noundef %1, i64 noundef %2)
  br label %immutable_obj_clone.exit

17:                                               ; preds = %obj_freeze_opt.exit, %11, %11, %11, %11, %11
  %18 = icmp eq i64 %2, 0
  br i1 %18, label %19, label %immutable_obj_clone.exit

19:                                               ; preds = %17
  %20 = load i64, ptr @rb_eArgError, align 8, !tbaa !7
  %21 = tail call i64 @rb_obj_class(i64 noundef %1)
  tail call void (i64, ptr, ...) @rb_raise(i64 noundef %20, ptr noundef nonnull @.str.139, i64 noundef %21) #24
  unreachable

immutable_obj_clone.exit:                         ; preds = %17, %special_object_p.exit
  %.0 = phi i64 [ %16, %special_object_p.exit ], [ %1, %17 ]
  ret i64 %.0
}